; Function Attrs: mustprogress uwtable
define hidden noundef ptr @_Z17mk_qffplra_tacticR11ast_managerRK10params_ref(ptr noundef nonnull align 8 dereferenceable(976) %m, ptr noundef nonnull align 8 dereferenceable(8) %p) local_unnamed_addr #3 {
entry:
  %call = tail call noundef ptr @_Z14mk_qffp_tacticR11ast_managerRK10params_ref(ptr noundef nonnull align 8 dereferenceable(976) %m, ptr noundef nonnull align 8 dereferenceable(8) %p)
  %vtable = load ptr, ptr %call, align 8
  %vfn = getelementptr inbounds i8, ptr %vtable, i64 96
  %0 = load ptr, ptr %vfn, align 8
  tail call void %0(ptr noundef nonnull align 8 dereferenceable(12) %call, ptr noundef nonnull align 8 dereferenceable(8) %p)
  ret ptr %call
}